; Function Attrs: mustprogress uwtable
define void @_ZNK8QuantLib8EventSet13newSimulationERKNS_4DateES3_(ptr dead_on_unwind noalias nocapture writable writeonly sret(%"class.boost::shared_ptr.0") align 8 %agg.result, ptr noundef nonnull align 8 dereferenceable(40) %this, ptr noundef nonnull align 8 dereferenceable(8) %start, ptr noundef nonnull align 8 dereferenceable(8) %end) unnamed_addr #0 align 2 personality ptr @__gxx_personality_v0 {
_ZN5boost10shared_ptrIN8QuantLib18EventSetSimulationEED2Ev.exit:
  %ref.tmp = alloca %"class.boost::shared_ptr.1", align 8
  call void @llvm.lifetime.start.p0(i64 16, ptr nonnull %ref.tmp) #21
  %events_ = getelementptr inbounds nuw i8, ptr %this, i64 8
  %eventsStart_ = getelementptr inbounds nuw i8, ptr %this, i64 24
  %eventsEnd_ = getelementptr inbounds nuw i8, ptr %this, i64 32
  call void @_ZN5boost11make_sharedIN8QuantLib18EventSetSimulationEJRKNS_10shared_ptrISt6vectorISt4pairINS1_4DateEdESaIS7_EEEERKS6_SE_SE_SE_EEENS_6detail15sp_if_not_arrayIT_E4typeEDpOT0_(ptr dead_on_unwind nonnull writable sret(%"class.boost::shared_ptr.1") align 8 %ref.tmp, ptr noundef nonnull align 8 dereferenceable(16) %events_, ptr noundef nonnull align 8 dereferenceable(8) %eventsStart_, ptr noundef nonnull align 8 dereferenceable(8) %eventsEnd_, ptr noundef nonnull align 8 dereferenceable(8) %start, ptr noundef nonnull align 8 dereferenceable(8) %end)
  %0 = load ptr, ptr %ref.tmp, align 8, !tbaa !38
  store ptr %0, ptr %agg.result, align 8, !tbaa !40
  %pn.i = getelementptr inbounds nuw i8, ptr %agg.result, i64 8
  %pn3.i = getelementptr inbounds nuw i8, ptr %ref.tmp, i64 8
  %1 = load ptr, ptr %pn3.i, align 8, !tbaa !13
  store ptr %1, ptr %pn.i, align 8, !tbaa !13
  call void @llvm.lifetime.end.p0(i64 16, ptr nonnull %ref.tmp) #21
  ret void
}